;	opendatacon
 ;
 ;	Copyright (c) 2014:
 ;
 ;		DCrip3fJguWgVCLrZFfA7sIGgvx1Ou3fHfCxnrz4svAi
 ;		yxeOtDhDCXf1Z4ApgXvX5ahqQmzRfJ2DoX8S05SqHA==
 ;	
 ;	Licensed under the Apache License, Version 2.0 (the "License");
 ;	you may not use this file except in compliance with the License.
 ;	You may obtain a copy of the License at
 ;	
 ;		http://www.apache.org/licenses/LICENSE-2.0
 ;
 ;	Unless required by applicable law or agreed to in writing, software
 ;	distributed under the License is distributed on an "AS IS" BASIS,
 ;	WITHOUT WARRANTIES OR CONDITIONS OF ANY KIND, either express or implied.
 ;	See the License for the specific language governing permissions and
 ;	limitations under the License.
 ; 
LIBRARY JSON
EXPORTS
	??AValue@Json@@QEAAAEAV01@I@Z
	??AValue@Json@@QEAAAEAV01@PEBD@Z
	?size@Value@Json@@QEBAIXZ
	?isNull@Value@Json@@QEBA_NXZ
	?asString@Value@Json@@QEBA?AV?$basic_string@DU?$char_traits@D@std@@V?$allocator@D@2@@std@@XZ
	??4Value@Json@@QEAAAEAV01@AEBV01@@Z
	??1Value@Json@@QEAA@XZ
	??0Value@Json@@QEAA@W4ValueType@1@@Z
	??0Value@Json@@QEAA@AEBV01@@Z
	?getFormattedErrorMessages@Reader@Json@@QEBA?AV?$basic_string@DU?$char_traits@D@std@@V?$allocator@D@2@@std@@XZ
	?parse@Reader@Json@@QEAA_NAEAV?$basic_istream@DU?$char_traits@D@std@@@std@@AEAVValue@2@_N@Z
	??0Reader@Json@@QEAA@XZ
	??AValue@Json@@QEBAAEBV01@I@Z
	??AValue@Json@@QEBAAEBV01@PEBD@Z
	?isString@Value@Json@@QEBA_NXZ
	?isNumeric@Value@Json@@QEBA_NXZ
	?isBool@Value@Json@@QEBA_NXZ
	?asBool@Value@Json@@QEBA_NXZ
	?asDouble@Value@Json@@QEBANXZ
	?asUInt@Value@Json@@QEBAIXZ
	?asCString@Value@Json@@QEBAPEBDXZ
	??9Value@Json@@QEBA_NAEBV01@@Z
	??8Value@Json@@QEBA_NAEBV01@@Z
	?parse@Reader@Json@@QEAA_NAEBV?$basic_string@DU?$char_traits@D@std@@V?$allocator@D@2@@std@@AEAVValue@2@_N@Z
	?toStyledString@Value@Json@@QEBA?AV?$basic_string@DU?$char_traits@D@std@@V?$allocator@D@2@@std@@XZ
	?isUInt@Value@Json@@QEBA_NXZ	
	